target datalayout = "e-m:e-p270:32:32-p271:32:32-p272:64:64-i64:64-i128:128-f80:128-n8:16:32:64-S128"
target triple = "x86_64-unknown-linux-gnu"

%"class.icu_75::UObject" = type { ptr }
%"class.icu_75::CollationBuilder" = type { %"class.icu_75::CollationRuleParser::Sink", ptr, ptr, ptr, ptr, ptr, %"class.icu_75::CollationRootElements", i32, ptr, i8, i8, [6 x i8], %"class.icu_75::UnicodeSet", ptr, [31 x i64], i32, %"class.icu_75::UVector32", %"class.icu_75::UVector64" }
%"class.icu_75::CollationRuleParser::Sink" = type { %"class.icu_75::UObject" }
%"class.icu_75::CollationRootElements" = type <{ ptr, i32, [4 x i8] }>
%"class.icu_75::UnicodeSet" = type <{ %"class.icu_75::UnicodeFilter", ptr, i32, i32, i8, [7 x i8], ptr, ptr, i32, [4 x i8], ptr, i32, [4 x i8], ptr, ptr, [25 x i32], [4 x i8] }>
%"class.icu_75::UnicodeFilter" = type { %"class.icu_75::UnicodeFunctor", %"class.icu_75::UnicodeMatcher" }
%"class.icu_75::UnicodeFunctor" = type { %"class.icu_75::UObject" }
%"class.icu_75::UnicodeMatcher" = type { ptr }
%"class.icu_75::UVector32" = type { %"class.icu_75::UObject", i32, i32, i32, ptr }
%"class.icu_75::UVector64" = type { %"class.icu_75::UObject", i32, i32, i32, ptr }

; Function Attrs: mustprogress uwtable
define linkonce_odr noundef signext i8 @_ZN6icu_759UVector6414ensureCapacityEiR10UErrorCode(ptr noundef nonnull align 8 dereferenceable(32) %this, i32 noundef %minimumCapacity, ptr noundef nonnull align 4 dereferenceable(4) %status) #0 comdat align 2 {
entry:
  %retval = alloca i8, align 1
  %this.addr = alloca ptr, align 8
  %minimumCapacity.addr = alloca i32, align 4
  %status.addr = alloca ptr, align 8
  store ptr %this, ptr %this.addr, align 8
  store i32 %minimumCapacity, ptr %minimumCapacity.addr, align 4
  store ptr %status, ptr %status.addr, align 8
  %this1 = load ptr, ptr %this.addr, align 8
  %0 = load i32, ptr %minimumCapacity.addr, align 4
  %cmp = icmp sge i32 %0, 0
  br i1 %cmp, label %land.lhs.true, label %if.else

land.lhs.true:                                    ; preds = %entry
  %capacity = getelementptr inbounds %"class.icu_75::UVector64", ptr %this1, i32 0, i32 2
  %1 = load i32, ptr %capacity, align 4
  %2 = load i32, ptr %minimumCapacity.addr, align 4
  %cmp2 = icmp sge i32 %1, %2
  br i1 %cmp2, label %if.then, label %if.else

if.then:                                          ; preds = %land.lhs.true
  store i8 1, ptr %retval, align 1
  br label %return

if.else:                                          ; preds = %land.lhs.true, %entry
  %3 = load i32, ptr %minimumCapacity.addr, align 4
  %4 = load ptr, ptr %status.addr, align 8
  %call = call noundef signext i8 @_ZN6icu_759UVector6414expandCapacityEiR10UErrorCode(ptr noundef nonnull align 8 dereferenceable(32) %this1, i32 noundef %3, ptr noundef nonnull align 4 dereferenceable(4) %4)
  store i8 %call, ptr %retval, align 1
  br label %return

return:                                           ; preds = %if.else, %if.then
  %5 = load i8, ptr %retval, align 1
  ret i8 %5
}

; Function Attrs: mustprogress uwtable
define linkonce_odr void @_ZN6icu_759UVector6410addElementElR10UErrorCode(ptr noundef nonnull align 8 dereferenceable(32) %this, i64 noundef %elem, ptr noundef nonnull align 4 dereferenceable(4) %status) #0 comdat align 2 {
entry:
  %this.addr = alloca ptr, align 8
  %elem.addr = alloca i64, align 8
  %status.addr = alloca ptr, align 8
  store ptr %this, ptr %this.addr, align 8
  store i64 %elem, ptr %elem.addr, align 8
  store ptr %status, ptr %status.addr, align 8
  %this1 = load ptr, ptr %this.addr, align 8
  %count = getelementptr inbounds %"class.icu_75::UVector64", ptr %this1, i32 0, i32 1
  %0 = load i32, ptr %count, align 8
  %add = add nsw i32 %0, 1
  %1 = load ptr, ptr %status.addr, align 8
  %call = call noundef signext i8 @_ZN6icu_759UVector6414ensureCapacityEiR10UErrorCode(ptr noundef nonnull align 8 dereferenceable(32) %this1, i32 noundef %add, ptr noundef nonnull align 4 dereferenceable(4) %1)
  %tobool = icmp ne i8 %call, 0
  br i1 %tobool, label %if.then, label %if.end

if.then:                                          ; preds = %entry
  %2 = load i64, ptr %elem.addr, align 8
  %elements = getelementptr inbounds %"class.icu_75::UVector64", ptr %this1, i32 0, i32 4
  %3 = load ptr, ptr %elements, align 8
  %count2 = getelementptr inbounds %"class.icu_75::UVector64", ptr %this1, i32 0, i32 1
  %4 = load i32, ptr %count2, align 8
  %idxprom = sext i32 %4 to i64
  %arrayidx = getelementptr inbounds i64, ptr %3, i64 %idxprom
  store i64 %2, ptr %arrayidx, align 8
  %count3 = getelementptr inbounds %"class.icu_75::UVector64", ptr %this1, i32 0, i32 1
  %5 = load i32, ptr %count3, align 8
  %inc = add nsw i32 %5, 1
  store i32 %inc, ptr %count3, align 8
  br label %if.end

if.end:                                           ; preds = %if.then, %entry
  ret void
}

; Function Attrs: mustprogress nounwind uwtable
define linkonce_odr noundef i64 @_ZN6icu_7516CollationBuilder16nodeFromWeight32Ej(i32 noundef %weight32) #3 comdat align 2 {
entry:
  %weight32.addr = alloca i32, align 4
  store i32 %weight32, ptr %weight32.addr, align 4
  %0 = load i32, ptr %weight32.addr, align 4
  %conv = zext i32 %0 to i64
  %shl = shl i64 %conv, 32
  ret i64 %shl
}

; Function Attrs: mustprogress nounwind uwtable
define linkonce_odr noundef i32 @_ZNK6icu_759UVector644sizeEv(ptr noundef nonnull align 8 dereferenceable(32) %this) #3 comdat align 2 {
entry:
  %this.addr = alloca ptr, align 8
  store ptr %this, ptr %this.addr, align 8
  %this1 = load ptr, ptr %this.addr, align 8
  %count = getelementptr inbounds %"class.icu_75::UVector64", ptr %this1, i32 0, i32 1
  %0 = load i32, ptr %count, align 8
  ret i32 %0
}

; Function Attrs: mustprogress nounwind uwtable
define linkonce_odr noundef i32 @_ZNK6icu_759UVector3210elementAtiEi(ptr noundef nonnull align 8 dereferenceable(32) %this, i32 noundef %index) #3 comdat align 2 {
entry:
  %this.addr = alloca ptr, align 8
  %index.addr = alloca i32, align 4
  store ptr %this, ptr %this.addr, align 8
  store i32 %index, ptr %index.addr, align 4
  %this1 = load ptr, ptr %this.addr, align 8
  %0 = load i32, ptr %index.addr, align 4
  %cmp = icmp sge i32 %0, 0
  br i1 %cmp, label %land.lhs.true, label %cond.false

land.lhs.true:                                    ; preds = %entry
  %count = getelementptr inbounds %"class.icu_75::UVector32", ptr %this1, i32 0, i32 1
  %1 = load i32, ptr %count, align 8
  %cmp2 = icmp sgt i32 %1, 0
  br i1 %cmp2, label %land.lhs.true3, label %cond.false

land.lhs.true3:                                   ; preds = %land.lhs.true
  %count4 = getelementptr inbounds %"class.icu_75::UVector32", ptr %this1, i32 0, i32 1
  %2 = load i32, ptr %count4, align 8
  %3 = load i32, ptr %index.addr, align 4
  %sub = sub nsw i32 %2, %3
  %cmp5 = icmp sgt i32 %sub, 0
  br i1 %cmp5, label %cond.true, label %cond.false

cond.true:                                        ; preds = %land.lhs.true3
  %elements = getelementptr inbounds %"class.icu_75::UVector32", ptr %this1, i32 0, i32 4
  %4 = load ptr, ptr %elements, align 8
  %5 = load i32, ptr %index.addr, align 4
  %idxprom = sext i32 %5 to i64
  %arrayidx = getelementptr inbounds i32, ptr %4, i64 %idxprom
  %6 = load i32, ptr %arrayidx, align 4
  br label %cond.end

cond.false:                                       ; preds = %land.lhs.true3, %land.lhs.true, %entry
  br label %cond.end

cond.end:                                         ; preds = %cond.false, %cond.true
  %cond = phi i32 [ %6, %cond.true ], [ 0, %cond.false ]
  ret i32 %cond
}

; Function Attrs: mustprogress nounwind uwtable
define internal noundef i32 @_ZN6icu_7512_GLOBAL__N_130binarySearchForRootPrimaryNodeEPKiiPKlj(ptr noundef %rootPrimaryIndexes, i32 noundef %length, ptr noundef %nodes, i32 noundef %p) #3 {
entry:
  %retval = alloca i32, align 4
  %rootPrimaryIndexes.addr = alloca ptr, align 8
  %length.addr = alloca i32, align 4
  %nodes.addr = alloca ptr, align 8
  %p.addr = alloca i32, align 4
  %start = alloca i32, align 4
  %limit = alloca i32, align 4
  %i = alloca i32, align 4
  %node = alloca i64, align 8
  %nodePrimary = alloca i32, align 4
  store ptr %rootPrimaryIndexes, ptr %rootPrimaryIndexes.addr, align 8
  store i32 %length, ptr %length.addr, align 4
  store ptr %nodes, ptr %nodes.addr, align 8
  store i32 %p, ptr %p.addr, align 4
  %0 = load i32, ptr %length.addr, align 4
  %cmp = icmp eq i32 %0, 0
  br i1 %cmp, label %if.then, label %if.end

if.then:                                          ; preds = %entry
  store i32 -1, ptr %retval, align 4
  br label %return

if.end:                                           ; preds = %entry
  store i32 0, ptr %start, align 4
  %1 = load i32, ptr %length.addr, align 4
  store i32 %1, ptr %limit, align 4
  br label %for.cond

for.cond:                                         ; preds = %if.end17, %if.end
  %2 = load i32, ptr %start, align 4
  %3 = load i32, ptr %limit, align 4
  %add = add nsw i32 %2, %3
  %div = sdiv i32 %add, 2
  store i32 %div, ptr %i, align 4
  %4 = load ptr, ptr %nodes.addr, align 8
  %5 = load ptr, ptr %rootPrimaryIndexes.addr, align 8
  %6 = load i32, ptr %i, align 4
  %idxprom = sext i32 %6 to i64
  %arrayidx = getelementptr inbounds i32, ptr %5, i64 %idxprom
  %7 = load i32, ptr %arrayidx, align 4
  %idxprom1 = sext i32 %7 to i64
  %arrayidx2 = getelementptr inbounds i64, ptr %4, i64 %idxprom1
  %8 = load i64, ptr %arrayidx2, align 8
  store i64 %8, ptr %node, align 8
  %9 = load i64, ptr %node, align 8
  %shr = ashr i64 %9, 32
  %conv = trunc i64 %shr to i32
  store i32 %conv, ptr %nodePrimary, align 4
  %10 = load i32, ptr %p.addr, align 4
  %11 = load i32, ptr %nodePrimary, align 4
  %cmp3 = icmp eq i32 %10, %11
  br i1 %cmp3, label %if.then4, label %if.else

if.then4:                                         ; preds = %for.cond
  %12 = load i32, ptr %i, align 4
  store i32 %12, ptr %retval, align 4
  br label %return

if.else:                                          ; preds = %for.cond
  %13 = load i32, ptr %p.addr, align 4
  %14 = load i32, ptr %nodePrimary, align 4
  %cmp5 = icmp ult i32 %13, %14
  br i1 %cmp5, label %if.then6, label %if.else10

if.then6:                                         ; preds = %if.else
  %15 = load i32, ptr %i, align 4
  %16 = load i32, ptr %start, align 4
  %cmp7 = icmp eq i32 %15, %16
  br i1 %cmp7, label %if.then8, label %if.end9

if.then8:                                         ; preds = %if.then6
  %17 = load i32, ptr %start, align 4
  %not = xor i32 %17, -1
  store i32 %not, ptr %retval, align 4
  br label %return

if.end9:                                          ; preds = %if.then6
  %18 = load i32, ptr %i, align 4
  store i32 %18, ptr %limit, align 4
  br label %if.end16

if.else10:                                        ; preds = %if.else
  %19 = load i32, ptr %i, align 4
  %20 = load i32, ptr %start, align 4
  %cmp11 = icmp eq i32 %19, %20
  br i1 %cmp11, label %if.then12, label %if.end15

if.then12:                                        ; preds = %if.else10
  %21 = load i32, ptr %start, align 4
  %add13 = add nsw i32 %21, 1
  %not14 = xor i32 %add13, -1
  store i32 %not14, ptr %retval, align 4
  br label %return

if.end15:                                         ; preds = %if.else10
  %22 = load i32, ptr %i, align 4
  store i32 %22, ptr %start, align 4
  br label %if.end16

if.end16:                                         ; preds = %if.end15, %if.end9
  br label %if.end17

if.end17:                                         ; preds = %if.end16
  br label %for.cond, !llvm.loop !22

return:                                           ; preds = %if.then12, %if.then8, %if.then4, %if.then
  %23 = load i32, ptr %retval, align 4
  ret i32 %23
}

; Function Attrs: mustprogress nounwind uwtable
define linkonce_odr noundef ptr @_ZNK6icu_759UVector649getBufferEv(ptr noundef nonnull align 8 dereferenceable(32) %this) #3 comdat align 2 {
entry:
  %this.addr = alloca ptr, align 8
  store ptr %this, ptr %this.addr, align 8
  %this1 = load ptr, ptr %this.addr, align 8
  %elements = getelementptr inbounds %"class.icu_75::UVector64", ptr %this1, i32 0, i32 4
  %0 = load ptr, ptr %elements, align 8
  ret ptr %0
}

; Function Attrs: mustprogress nounwind uwtable
define linkonce_odr noundef i32 @_ZNK6icu_759UVector324sizeEv(ptr noundef nonnull align 8 dereferenceable(32) %this) #3 comdat align 2 {
entry:
  %this.addr = alloca ptr, align 8
  store ptr %this, ptr %this.addr, align 8
  %this1 = load ptr, ptr %this.addr, align 8
  %count = getelementptr inbounds %"class.icu_75::UVector32", ptr %this1, i32 0, i32 1
  %0 = load i32, ptr %count, align 8
  ret i32 %0
}

; Function Attrs: mustprogress nounwind uwtable
define linkonce_odr noundef ptr @_ZNK6icu_759UVector329getBufferEv(ptr noundef nonnull align 8 dereferenceable(32) %this) #3 comdat align 2 {
entry:
  %this.addr = alloca ptr, align 8
  store ptr %this, ptr %this.addr, align 8
  %this1 = load ptr, ptr %this.addr, align 8
  %elements = getelementptr inbounds %"class.icu_75::UVector32", ptr %this1, i32 0, i32 4
  %0 = load ptr, ptr %elements, align 8
  ret ptr %0
}

; Function Attrs: mustprogress nounwind uwtable
define internal noundef signext i8 @_ZL9U_FAILURE10UErrorCode(i32 noundef %code) #3 {
entry:
  %code.addr = alloca i32, align 4
  store i32 %code, ptr %code.addr, align 4
  %0 = load i32, ptr %code.addr, align 4
  %cmp = icmp sgt i32 %0, 0
  %conv = zext i1 %cmp to i8
  ret i8 %conv
}

; Function Attrs: mustprogress uwtable
define noundef i32 @_ZN6icu_7516CollationBuilder26findOrInsertNodeForPrimaryEjR10UErrorCode(ptr noundef nonnull align 8 dereferenceable(616) %this, i32 noundef %p, ptr noundef nonnull align 4 dereferenceable(4) %errorCode) #0 align 2 {
entry:
  %retval = alloca i32, align 4
  %this.addr = alloca ptr, align 8
  %p.addr = alloca i32, align 4
  %errorCode.addr = alloca ptr, align 8
  %rootIndex = alloca i32, align 4
  %index = alloca i32, align 4
  store ptr %this, ptr %this.addr, align 8
  store i32 %p, ptr %p.addr, align 4
  store ptr %errorCode, ptr %errorCode.addr, align 8
  %this1 = load ptr, ptr %this.addr, align 8
  %0 = load ptr, ptr %errorCode.addr, align 8
  %1 = load i32, ptr %0, align 4
  %call = call noundef signext i8 @_ZL9U_FAILURE10UErrorCode(i32 noundef %1)
  %tobool = icmp ne i8 %call, 0
  br i1 %tobool, label %if.then, label %if.end

if.then:                                          ; preds = %entry
  store i32 0, ptr %retval, align 4
  br label %return

if.end:                                           ; preds = %entry
  %rootPrimaryIndexes = getelementptr inbounds %"class.icu_75::CollationBuilder", ptr %this1, i32 0, i32 16
  %call2 = call noundef ptr @_ZNK6icu_759UVector329getBufferEv(ptr noundef nonnull align 8 dereferenceable(32) %rootPrimaryIndexes)
  %rootPrimaryIndexes3 = getelementptr inbounds %"class.icu_75::CollationBuilder", ptr %this1, i32 0, i32 16
  %call4 = call noundef i32 @_ZNK6icu_759UVector324sizeEv(ptr noundef nonnull align 8 dereferenceable(32) %rootPrimaryIndexes3)
  %nodes = getelementptr inbounds %"class.icu_75::CollationBuilder", ptr %this1, i32 0, i32 17
  %call5 = call noundef ptr @_ZNK6icu_759UVector649getBufferEv(ptr noundef nonnull align 8 dereferenceable(32) %nodes)
  %2 = load i32, ptr %p.addr, align 4
  %call6 = call noundef i32 @_ZN6icu_7512_GLOBAL__N_130binarySearchForRootPrimaryNodeEPKiiPKlj(ptr noundef %call2, i32 noundef %call4, ptr noundef %call5, i32 noundef %2)
  store i32 %call6, ptr %rootIndex, align 4
  %3 = load i32, ptr %rootIndex, align 4
  %cmp = icmp sge i32 %3, 0
  br i1 %cmp, label %if.then7, label %if.else

if.then7:                                         ; preds = %if.end
  %rootPrimaryIndexes8 = getelementptr inbounds %"class.icu_75::CollationBuilder", ptr %this1, i32 0, i32 16
  %4 = load i32, ptr %rootIndex, align 4
  %call9 = call noundef i32 @_ZNK6icu_759UVector3210elementAtiEi(ptr noundef nonnull align 8 dereferenceable(32) %rootPrimaryIndexes8, i32 noundef %4)
  store i32 %call9, ptr %retval, align 4
  br label %return

if.else:                                          ; preds = %if.end
  %nodes10 = getelementptr inbounds %"class.icu_75::CollationBuilder", ptr %this1, i32 0, i32 17
  %call11 = call noundef i32 @_ZNK6icu_759UVector644sizeEv(ptr noundef nonnull align 8 dereferenceable(32) %nodes10)
  store i32 %call11, ptr %index, align 4
  %nodes12 = getelementptr inbounds %"class.icu_75::CollationBuilder", ptr %this1, i32 0, i32 17
  %5 = load i32, ptr %p.addr, align 4
  %call13 = call noundef i64 @_ZN6icu_7516CollationBuilder16nodeFromWeight32Ej(i32 noundef %5)
  %6 = load ptr, ptr %errorCode.addr, align 8
  call void @_ZN6icu_759UVector6410addElementElR10UErrorCode(ptr noundef nonnull align 8 dereferenceable(32) %nodes12, i64 noundef %call13, ptr noundef nonnull align 4 dereferenceable(4) %6)
  %rootPrimaryIndexes14 = getelementptr inbounds %"class.icu_75::CollationBuilder", ptr %this1, i32 0, i32 16
  %7 = load i32, ptr %index, align 4
  %8 = load i32, ptr %rootIndex, align 4
  %not = xor i32 %8, -1
  %9 = load ptr, ptr %errorCode.addr, align 8
  call void @_ZN6icu_759UVector3215insertElementAtEiiR10UErrorCode(ptr noundef nonnull align 8 dereferenceable(32) %rootPrimaryIndexes14, i32 noundef %7, i32 noundef %not, ptr noundef nonnull align 4 dereferenceable(4) %9)
  %10 = load i32, ptr %index, align 4
  store i32 %10, ptr %retval, align 4
  br label %return

return:                                           ; preds = %if.else, %if.then7, %if.then
  %11 = load i32, ptr %retval, align 4
  ret i32 %11
}