; Function Attrs: mustprogress uwtable
define noundef i32 @_ZN6icu_7516CollationBuilder26findOrInsertNodeForPrimaryEjR10UErrorCode(ptr noundef nonnull align 8 dereferenceable(616) %this, i32 noundef %p, ptr noundef nonnull align 4 dereferenceable(4) %errorCode) local_unnamed_addr #0 align 2 {
entry:
  %0 = load i32, ptr %errorCode, align 4
  %cmp.i = icmp slt i32 %0, 1
  br i1 %cmp.i, label %if.end, label %return

if.end:                                           ; preds = %entry
  %rootPrimaryIndexes = getelementptr inbounds i8, ptr %this, i64 552
  %elements.i = getelementptr inbounds i8, ptr %this, i64 576
  %1 = load ptr, ptr %elements.i, align 8
  %count.i = getelementptr inbounds i8, ptr %this, i64 560
  %2 = load i32, ptr %count.i, align 8
  %nodes = getelementptr inbounds i8, ptr %this, i64 584
  %elements.i7 = getelementptr inbounds i8, ptr %this, i64 608
  %3 = load ptr, ptr %elements.i7, align 8
  %cmp.i8 = icmp eq i32 %2, 0
  br i1 %cmp.i8, label %if.else, label %for.cond.preheader.i

for.cond.preheader.i:                             ; preds = %if.end
  %div17.i = sdiv i32 %2, 2
  %idxprom18.i = sext i32 %div17.i to i64
  %arrayidx19.i = getelementptr inbounds i32, ptr %1, i64 %idxprom18.i
  %4 = load i32, ptr %arrayidx19.i, align 4
  %idxprom120.i = sext i32 %4 to i64
  %arrayidx221.i = getelementptr inbounds i64, ptr %3, i64 %idxprom120.i
  %5 = load i64, ptr %arrayidx221.i, align 8
  %shr22.i = lshr i64 %5, 32
  %conv23.i = trunc i64 %shr22.i to i32
  %cmp324.i = icmp eq i32 %conv23.i, %p
  br i1 %cmp324.i, label %_ZN6icu_7512_GLOBAL__N_130binarySearchForRootPrimaryNodeEPKiiPKlj.exit, label %if.else.i

if.else.i:                                        ; preds = %for.cond.preheader.i, %if.end17.i
  %conv28.i = phi i32 [ %conv.i9, %if.end17.i ], [ %conv23.i, %for.cond.preheader.i ]
  %div27.i = phi i32 [ %div.i, %if.end17.i ], [ %div17.i, %for.cond.preheader.i ]
  %start.026.i = phi i32 [ %start.1.i, %if.end17.i ], [ 0, %for.cond.preheader.i ]
  %limit.025.i = phi i32 [ %limit.1.i, %if.end17.i ], [ %2, %for.cond.preheader.i ]
  %cmp5.i = icmp ugt i32 %conv28.i, %p
  %cmp7.i = icmp eq i32 %div27.i, %start.026.i
  br i1 %cmp5.i, label %if.then6.i, label %if.else10.i

if.then6.i:                                       ; preds = %if.else.i
  br i1 %cmp7.i, label %if.then8.i, label %if.end17.i

if.then8.i:                                       ; preds = %if.then6.i
  %not.i = xor i32 %div27.i, -1
  br label %_ZN6icu_7512_GLOBAL__N_130binarySearchForRootPrimaryNodeEPKiiPKlj.exit

if.else10.i:                                      ; preds = %if.else.i
  br i1 %cmp7.i, label %if.then12.i, label %if.end17.i

if.then12.i:                                      ; preds = %if.else10.i
  %not14.i = sub nsw i32 -2, %div27.i
  br label %_ZN6icu_7512_GLOBAL__N_130binarySearchForRootPrimaryNodeEPKiiPKlj.exit

if.end17.i:                                       ; preds = %if.else10.i, %if.then6.i
  %limit.1.i = phi i32 [ %div27.i, %if.then6.i ], [ %limit.025.i, %if.else10.i ]
  %start.1.i = phi i32 [ %start.026.i, %if.then6.i ], [ %div27.i, %if.else10.i ]
  %add.i = add nsw i32 %start.1.i, %limit.1.i
  %div.i = sdiv i32 %add.i, 2
  %idxprom.i = sext i32 %div.i to i64
  %arrayidx.i = getelementptr inbounds i32, ptr %1, i64 %idxprom.i
  %6 = load i32, ptr %arrayidx.i, align 4
  %idxprom1.i = sext i32 %6 to i64
  %arrayidx2.i = getelementptr inbounds i64, ptr %3, i64 %idxprom1.i
  %7 = load i64, ptr %arrayidx2.i, align 8
  %shr.i = lshr i64 %7, 32
  %conv.i9 = trunc i64 %shr.i to i32
  %cmp3.i = icmp eq i32 %conv.i9, %p
  br i1 %cmp3.i, label %_ZN6icu_7512_GLOBAL__N_130binarySearchForRootPrimaryNodeEPKiiPKlj.exit, label %if.else.i, !llvm.loop !21

_ZN6icu_7512_GLOBAL__N_130binarySearchForRootPrimaryNodeEPKiiPKlj.exit: ; preds = %if.end17.i, %for.cond.preheader.i, %if.then8.i, %if.then12.i
  %retval.0.i = phi i32 [ %not.i, %if.then8.i ], [ %not14.i, %if.then12.i ], [ %div17.i, %for.cond.preheader.i ], [ %div.i, %if.end17.i ]
  %cmp = icmp sgt i32 %retval.0.i, -1
  br i1 %cmp, label %if.then7, label %if.else

if.then7:                                         ; preds = %_ZN6icu_7512_GLOBAL__N_130binarySearchForRootPrimaryNodeEPKiiPKlj.exit
  %cmp5.i12 = icmp sgt i32 %2, %retval.0.i
  br i1 %cmp5.i12, label %cond.true.i, label %return

cond.true.i:                                      ; preds = %if.then7
  %idxprom.i14 = zext nneg i32 %retval.0.i to i64
  %arrayidx.i15 = getelementptr inbounds i32, ptr %1, i64 %idxprom.i14
  %8 = load i32, ptr %arrayidx.i15, align 4
  br label %return

if.else:                                          ; preds = %if.end, %_ZN6icu_7512_GLOBAL__N_130binarySearchForRootPrimaryNodeEPKiiPKlj.exit
  %retval.0.i25 = phi i32 [ %retval.0.i, %_ZN6icu_7512_GLOBAL__N_130binarySearchForRootPrimaryNodeEPKiiPKlj.exit ], [ -1, %if.end ]
  %count.i16 = getelementptr inbounds i8, ptr %this, i64 592
  %9 = load i32, ptr %count.i16, align 8
  %conv.i17 = zext i32 %p to i64
  %shl.i = shl nuw i64 %conv.i17, 32
  %cmp.i.i = icmp slt i32 %9, -1
  %capacity.i.i = getelementptr inbounds i8, ptr %this, i64 596
  %10 = load i32, ptr %capacity.i.i, align 4
  %cmp2.not.i.i = icmp sle i32 %10, %9
  %or.cond.i.i = select i1 %cmp.i.i, i1 true, i1 %cmp2.not.i.i
  br i1 %or.cond.i.i, label %_ZN6icu_759UVector6414ensureCapacityEiR10UErrorCode.exit.i, label %if.then.i

_ZN6icu_759UVector6414ensureCapacityEiR10UErrorCode.exit.i: ; preds = %if.else
  %add.i22 = add nsw i32 %9, 1
  %call.i.i = tail call noundef signext i8 @_ZN6icu_759UVector6414expandCapacityEiR10UErrorCode(ptr noundef nonnull align 8 dereferenceable(32) %nodes, i32 noundef %add.i22, ptr noundef nonnull align 4 dereferenceable(4) %errorCode)
  %tobool.not.i = icmp eq i8 %call.i.i, 0
  br i1 %tobool.not.i, label %_ZN6icu_759UVector6410addElementElR10UErrorCode.exit, label %_ZN6icu_759UVector6414ensureCapacityEiR10UErrorCode.exit.if.then_crit_edge.i

_ZN6icu_759UVector6414ensureCapacityEiR10UErrorCode.exit.if.then_crit_edge.i: ; preds = %_ZN6icu_759UVector6414ensureCapacityEiR10UErrorCode.exit.i
  %.pre.i = load i32, ptr %count.i16, align 8
  %.pre = load ptr, ptr %elements.i7, align 8
  br label %if.then.i

if.then.i:                                        ; preds = %_ZN6icu_759UVector6414ensureCapacityEiR10UErrorCode.exit.if.then_crit_edge.i, %if.else
  %11 = phi ptr [ %.pre, %_ZN6icu_759UVector6414ensureCapacityEiR10UErrorCode.exit.if.then_crit_edge.i ], [ %3, %if.else ]
  %12 = phi i32 [ %.pre.i, %_ZN6icu_759UVector6414ensureCapacityEiR10UErrorCode.exit.if.then_crit_edge.i ], [ %9, %if.else ]
  %idxprom.i20 = sext i32 %12 to i64
  %arrayidx.i21 = getelementptr inbounds i64, ptr %11, i64 %idxprom.i20
  store i64 %shl.i, ptr %arrayidx.i21, align 8
  %13 = load i32, ptr %count.i16, align 8
  %inc.i = add nsw i32 %13, 1
  store i32 %inc.i, ptr %count.i16, align 8
  br label %_ZN6icu_759UVector6410addElementElR10UErrorCode.exit

_ZN6icu_759UVector6410addElementElR10UErrorCode.exit: ; preds = %_ZN6icu_759UVector6414ensureCapacityEiR10UErrorCode.exit.i, %if.then.i
  %not = xor i32 %retval.0.i25, -1
  tail call void @_ZN6icu_759UVector3215insertElementAtEiiR10UErrorCode(ptr noundef nonnull align 8 dereferenceable(32) %rootPrimaryIndexes, i32 noundef %9, i32 noundef %not, ptr noundef nonnull align 4 dereferenceable(4) %errorCode)
  br label %return

return:                                           ; preds = %cond.true.i, %if.then7, %entry, %_ZN6icu_759UVector6410addElementElR10UErrorCode.exit
  %retval.0 = phi i32 [ %9, %_ZN6icu_759UVector6410addElementElR10UErrorCode.exit ], [ 0, %entry ], [ %8, %cond.true.i ], [ 0, %if.then7 ]
  ret i32 %retval.0
}